target datalayout = "e-m:e-p270:32:32-p271:32:32-p272:64:64-i64:64-i128:128-f80:128-n8:16:32:64-S128"
target triple = "x86_64-pc-linux-gnu"

%struct.PJconsts = type { ptr, ptr, ptr, ptr, ptr, ptr, ptr, ptr, ptr, ptr, ptr, ptr, i32, ptr, ptr, ptr, ptr, ptr, ptr, ptr, ptr, double, double, double, double, double, double, double, double, double, double, double, double, double, double, double, double, double, double, double, double, double, double, i32, i32, i32, i32, i32, i32, i32, i32, i32, i32, i32, ptr, ptr, ptr, ptr, ptr, ptr, double, double, double, double, double, double, double, double, double, double, double, i32, [7 x double], i32, ptr, ptr, double, double, i32, [4 x i8], %"class.std::shared_ptr", i8, double, i8, %"class.std::__cxx11::basic_string", %"class.std::__cxx11::basic_string", %"class.std::__cxx11::basic_string", i8, %"class.std::vector", i32, %"class.std::vector.3", i32, i8, i8, i8, ptr }
%"class.std::shared_ptr" = type { %"class.std::__shared_ptr" }
%"class.std::__shared_ptr" = type { ptr, %"class.std::__shared_count" }
%"class.std::__shared_count" = type { ptr }
%"class.std::__cxx11::basic_string" = type { %"struct.std::__cxx11::basic_string<char>::_Alloc_hider", i64, %union.anon }
%"struct.std::__cxx11::basic_string<char>::_Alloc_hider" = type { ptr }
%union.anon = type { i64, [8 x i8] }
%"class.std::vector" = type { %"struct.std::_Vector_base" }
%"struct.std::_Vector_base" = type { %"struct.std::_Vector_base<osgeo::proj::operation::GridDescription, std::allocator<osgeo::proj::operation::GridDescription>>::_Vector_impl" }
%"struct.std::_Vector_base<osgeo::proj::operation::GridDescription, std::allocator<osgeo::proj::operation::GridDescription>>::_Vector_impl" = type { %"struct.std::_Vector_base<osgeo::proj::operation::GridDescription, std::allocator<osgeo::proj::operation::GridDescription>>::_Vector_impl_data" }
%"struct.std::_Vector_base<osgeo::proj::operation::GridDescription, std::allocator<osgeo::proj::operation::GridDescription>>::_Vector_impl_data" = type { ptr, ptr, ptr }
%"class.std::vector.3" = type { %"struct.std::_Vector_base.4" }
%"struct.std::_Vector_base.4" = type { %"struct.std::_Vector_base<PJCoordOperation, std::allocator<PJCoordOperation>>::_Vector_impl" }
%"struct.std::_Vector_base<PJCoordOperation, std::allocator<PJCoordOperation>>::_Vector_impl" = type { %"struct.std::_Vector_base<PJCoordOperation, std::allocator<PJCoordOperation>>::_Vector_impl_data" }
%"struct.std::_Vector_base<PJCoordOperation, std::allocator<PJCoordOperation>>::_Vector_impl_data" = type { ptr, ptr, ptr }
%union.PROJVALUE = type { double }
%"struct.(anonymous namespace)::pj_ccon_data" = type { double, double, double, double, ptr }

@.str.1 = private unnamed_addr constant [7 x i8] c"rlat_1\00", align 1
@.str.2 = private unnamed_addr constant [47 x i8] c"Invalid value for lat_1: |lat_1| should be > 0\00", align 1

; Function Attrs: mustprogress uwtable
define internal noundef ptr @_ZL18pj_ccon_destructorP8PJconstsi(ptr noundef %0, i32 noundef %1) #0 {
  %3 = alloca ptr, align 8
  %4 = alloca ptr, align 8
  %5 = alloca i32, align 4
  store ptr %0, ptr %4, align 8, !tbaa !3
  store i32 %1, ptr %5, align 4, !tbaa !53
  %6 = load ptr, ptr %4, align 8, !tbaa !3
  %7 = icmp eq ptr null, %6
  br i1 %7, label %8, label %9

8:                                                ; preds = %2
  store ptr null, ptr %3, align 8
  br label %27

9:                                                ; preds = %2
  %10 = load ptr, ptr %4, align 8, !tbaa !3
  %11 = getelementptr inbounds nuw %struct.PJconsts, ptr %10, i32 0, i32 11
  %12 = load ptr, ptr %11, align 8, !tbaa !43
  %13 = icmp eq ptr null, %12
  br i1 %13, label %14, label %18

14:                                               ; preds = %9
  %15 = load ptr, ptr %4, align 8, !tbaa !3
  %16 = load i32, ptr %5, align 4, !tbaa !53
  %17 = call noundef ptr @_Z21pj_default_destructorP8PJconstsi(ptr noundef %15, i32 noundef %16)
  store ptr %17, ptr %3, align 8
  br label %27

18:                                               ; preds = %9
  %19 = load ptr, ptr %4, align 8, !tbaa !3
  %20 = getelementptr inbounds nuw %struct.PJconsts, ptr %19, i32 0, i32 11
  %21 = load ptr, ptr %20, align 8, !tbaa !43
  %22 = getelementptr inbounds nuw %"struct.(anonymous namespace)::pj_ccon_data", ptr %21, i32 0, i32 4
  %23 = load ptr, ptr %22, align 8, !tbaa !52
  call void @free(ptr noundef %23) #8
  %24 = load ptr, ptr %4, align 8, !tbaa !3
  %25 = load i32, ptr %5, align 4, !tbaa !53
  %26 = call noundef ptr @_Z21pj_default_destructorP8PJconstsi(ptr noundef %24, i32 noundef %25)
  store ptr %26, ptr %3, align 8
  br label %27

27:                                               ; preds = %18, %14, %8
  %28 = load ptr, ptr %3, align 8
  ret ptr %28
}

; Function Attrs: mustprogress uwtable
define hidden noundef ptr @_Z33pj_projection_specific_setup_cconP8PJconsts(ptr noundef %0) #0 {
  %2 = alloca ptr, align 8
  %3 = alloca ptr, align 8
  %4 = alloca ptr, align 8
  %5 = alloca i32, align 4
  %6 = alloca %union.PROJVALUE, align 8
  store ptr %0, ptr %3, align 8, !tbaa !3
  call void @llvm.lifetime.start.p0(i64 8, ptr %4) #8
  %7 = call noalias ptr @calloc(i64 noundef 1, i64 noundef 40) #9
  store ptr %7, ptr %4, align 8, !tbaa !41
  %8 = load ptr, ptr %4, align 8, !tbaa !41
  %9 = icmp eq ptr null, %8
  br i1 %9, label %10, label %13

10:                                               ; preds = %1
  %11 = load ptr, ptr %3, align 8, !tbaa !3
  %12 = call noundef ptr @_Z21pj_default_destructorP8PJconstsi(ptr noundef %11, i32 noundef 4096)
  store ptr %12, ptr %2, align 8
  store i32 1, ptr %5, align 4
  br label %77

13:                                               ; preds = %1
  %14 = load ptr, ptr %4, align 8, !tbaa !41
  %15 = load ptr, ptr %3, align 8, !tbaa !3
  %16 = getelementptr inbounds nuw %struct.PJconsts, ptr %15, i32 0, i32 11
  store ptr %14, ptr %16, align 8, !tbaa !43
  %17 = load ptr, ptr %3, align 8, !tbaa !3
  %18 = getelementptr inbounds nuw %struct.PJconsts, ptr %17, i32 0, i32 19
  store ptr @_ZL18pj_ccon_destructorP8PJconstsi, ptr %18, align 8, !tbaa !44
  call void @llvm.lifetime.start.p0(i64 8, ptr %6) #8
  %19 = load ptr, ptr %3, align 8, !tbaa !3
  %20 = getelementptr inbounds nuw %struct.PJconsts, ptr %19, i32 0, i32 0
  %21 = load ptr, ptr %20, align 8, !tbaa !45
  %22 = load ptr, ptr %3, align 8, !tbaa !3
  %23 = getelementptr inbounds nuw %struct.PJconsts, ptr %22, i32 0, i32 3
  %24 = load ptr, ptr %23, align 8, !tbaa !46
  %25 = call i64 @_Z8pj_paramP6pj_ctxP8ARG_listPKc(ptr noundef %21, ptr noundef %24, ptr noundef @.str.1)
  %26 = getelementptr inbounds nuw %union.PROJVALUE, ptr %6, i32 0, i32 0
  store i64 %25, ptr %26, align 8
  %27 = load double, ptr %6, align 8, !tbaa !47
  %28 = load ptr, ptr %4, align 8, !tbaa !41
  %29 = getelementptr inbounds nuw %"struct.(anonymous namespace)::pj_ccon_data", ptr %28, i32 0, i32 0
  store double %27, ptr %29, align 8, !tbaa !48
  call void @llvm.lifetime.end.p0(i64 8, ptr %6) #8
  %30 = load ptr, ptr %4, align 8, !tbaa !41
  %31 = getelementptr inbounds nuw %"struct.(anonymous namespace)::pj_ccon_data", ptr %30, i32 0, i32 0
  %32 = load double, ptr %31, align 8, !tbaa !48
  %33 = call double @llvm.fabs.f64(double %32)
  %34 = fcmp olt double %33, 1.000000e-10
  br i1 %34, label %35, label %39

35:                                               ; preds = %13
  %36 = load ptr, ptr %3, align 8, !tbaa !3
  call void (ptr, ptr, ...) @_Z14proj_log_errorPK8PJconstsPKcz(ptr noundef %36, ptr noundef @.str.2)
  %37 = load ptr, ptr %3, align 8, !tbaa !3
  %38 = call noundef ptr @_ZL18pj_ccon_destructorP8PJconstsi(ptr noundef %37, i32 noundef 1027)
  store ptr %38, ptr %2, align 8
  store i32 1, ptr %5, align 4
  br label %77

39:                                               ; preds = %13
  %40 = load ptr, ptr %3, align 8, !tbaa !3
  %41 = getelementptr inbounds nuw %struct.PJconsts, ptr %40, i32 0, i32 36
  %42 = load double, ptr %41, align 8, !tbaa !51
  %43 = call noundef ptr @_Z7pj_enfnd(double noundef %42)
  %44 = load ptr, ptr %4, align 8, !tbaa !41
  %45 = getelementptr inbounds nuw %"struct.(anonymous namespace)::pj_ccon_data", ptr %44, i32 0, i32 4
  store ptr %43, ptr %45, align 8, !tbaa !52
  %46 = icmp ne ptr %43, null
  br i1 %46, label %50, label %47

47:                                               ; preds = %39
  %48 = load ptr, ptr %3, align 8, !tbaa !3
  %49 = call noundef ptr @_ZL18pj_ccon_destructorP8PJconstsi(ptr noundef %48, i32 noundef 4096)
  store ptr %49, ptr %2, align 8
  store i32 1, ptr %5, align 4
  br label %77

50:                                               ; preds = %39
  %51 = load ptr, ptr %4, align 8, !tbaa !41
  %52 = getelementptr inbounds nuw %"struct.(anonymous namespace)::pj_ccon_data", ptr %51, i32 0, i32 0
  %53 = load double, ptr %52, align 8, !tbaa !48
  %54 = call double @sin(double noundef %53) #8, !tbaa !53
  %55 = load ptr, ptr %4, align 8, !tbaa !41
  %56 = getelementptr inbounds nuw %"struct.(anonymous namespace)::pj_ccon_data", ptr %55, i32 0, i32 2
  store double %54, ptr %56, align 8, !tbaa !54
  %57 = load ptr, ptr %4, align 8, !tbaa !41
  %58 = getelementptr inbounds nuw %"struct.(anonymous namespace)::pj_ccon_data", ptr %57, i32 0, i32 0
  %59 = load double, ptr %58, align 8, !tbaa !48
  %60 = call double @cos(double noundef %59) #8, !tbaa !53
  %61 = load ptr, ptr %4, align 8, !tbaa !41
  %62 = getelementptr inbounds nuw %"struct.(anonymous namespace)::pj_ccon_data", ptr %61, i32 0, i32 3
  store double %60, ptr %62, align 8, !tbaa !55
  %63 = load ptr, ptr %4, align 8, !tbaa !41
  %64 = getelementptr inbounds nuw %"struct.(anonymous namespace)::pj_ccon_data", ptr %63, i32 0, i32 3
  %65 = load double, ptr %64, align 8, !tbaa !55
  %66 = load ptr, ptr %4, align 8, !tbaa !41
  %67 = getelementptr inbounds nuw %"struct.(anonymous namespace)::pj_ccon_data", ptr %66, i32 0, i32 2
  %68 = load double, ptr %67, align 8, !tbaa !54
  %69 = fdiv double %65, %68
  %70 = load ptr, ptr %4, align 8, !tbaa !41
  %71 = getelementptr inbounds nuw %"struct.(anonymous namespace)::pj_ccon_data", ptr %70, i32 0, i32 1
  store double %69, ptr %71, align 8, !tbaa !56
  %72 = load ptr, ptr %3, align 8, !tbaa !3
  %73 = getelementptr inbounds nuw %struct.PJconsts, ptr %72, i32 0, i32 14
  store ptr @_ZL12ccon_inverse5PJ_XYP8PJconsts, ptr %73, align 8, !tbaa !57
  %74 = load ptr, ptr %3, align 8, !tbaa !3
  %75 = getelementptr inbounds nuw %struct.PJconsts, ptr %74, i32 0, i32 13
  store ptr @_ZL12ccon_forward5PJ_LPP8PJconsts, ptr %75, align 8, !tbaa !58
  %76 = load ptr, ptr %3, align 8, !tbaa !3
  store ptr %76, ptr %2, align 8
  store i32 1, ptr %5, align 4
  br label %77

77:                                               ; preds = %50, %47, %35, %10
  call void @llvm.lifetime.end.p0(i64 8, ptr %4) #8
  %78 = load ptr, ptr %2, align 8
  ret ptr %78
}