; Function Attrs: mustprogress uwtable
define hidden noundef ptr @_Z33pj_projection_specific_setup_cconP8PJconsts(ptr noundef %0) local_unnamed_addr #0 {
  %2 = tail call noalias dereferenceable_or_null(40) ptr @calloc(i64 noundef 1, i64 noundef 40) #7
  %3 = icmp eq ptr %2, null
  br i1 %3, label %4, label %6

4:                                                ; preds = %1
  %5 = tail call noundef ptr @_Z21pj_default_destructorP8PJconstsi(ptr noundef %0, i32 noundef 4096)
  br label %45

6:                                                ; preds = %1
  %7 = getelementptr inbounds nuw i8, ptr %0, i64 88
  store ptr %2, ptr %7, align 8, !tbaa !40
  %8 = getelementptr inbounds nuw i8, ptr %0, i64 152
  store ptr @_ZL18pj_ccon_destructorP8PJconstsi, ptr %8, align 8, !tbaa !41
  %9 = load ptr, ptr %0, align 8, !tbaa !42
  %10 = getelementptr inbounds nuw i8, ptr %0, i64 24
  %11 = load ptr, ptr %10, align 8, !tbaa !43
  %12 = tail call i64 @_Z8pj_paramP6pj_ctxP8ARG_listPKc(ptr noundef %9, ptr noundef %11, ptr noundef nonnull @.str.1)
  %13 = bitcast i64 %12 to double
  store i64 %12, ptr %2, align 8, !tbaa !44
  %14 = tail call double @llvm.fabs.f64(double %13)
  %15 = fcmp olt double %14, 1.000000e-10
  br i1 %15, label %16, label %23

16:                                               ; preds = %6
  tail call void (ptr, ptr, ...) @_Z14proj_log_errorPK8PJconstsPKcz(ptr noundef nonnull %0, ptr noundef nonnull @.str.2)
  %17 = load ptr, ptr %7, align 8, !tbaa !40
  %18 = icmp eq ptr %17, null
  br i1 %18, label %_ZL18pj_ccon_destructorP8PJconstsi.exit, label %19

19:                                               ; preds = %16
  %20 = getelementptr inbounds nuw i8, ptr %17, i64 32
  %21 = load ptr, ptr %20, align 8, !tbaa !47
  tail call void @free(ptr noundef %21) #8
  br label %_ZL18pj_ccon_destructorP8PJconstsi.exit

_ZL18pj_ccon_destructorP8PJconstsi.exit:          ; preds = %16, %19
  %22 = tail call noundef ptr @_Z21pj_default_destructorP8PJconstsi(ptr noundef nonnull %0, i32 noundef 1027)
  br label %45

23:                                               ; preds = %6
  %24 = getelementptr inbounds nuw i8, ptr %0, i64 288
  %25 = load double, ptr %24, align 8, !tbaa !48
  %26 = tail call noundef ptr @_Z7pj_enfnd(double noundef %25)
  %27 = getelementptr inbounds nuw i8, ptr %2, i64 32
  store ptr %26, ptr %27, align 8, !tbaa !47
  %.not = icmp eq ptr %26, null
  br i1 %.not, label %28, label %35

28:                                               ; preds = %23
  %29 = load ptr, ptr %7, align 8, !tbaa !40
  %30 = icmp eq ptr %29, null
  br i1 %30, label %_ZL18pj_ccon_destructorP8PJconstsi.exit28, label %31

31:                                               ; preds = %28
  %32 = getelementptr inbounds nuw i8, ptr %29, i64 32
  %33 = load ptr, ptr %32, align 8, !tbaa !47
  tail call void @free(ptr noundef %33) #8
  br label %_ZL18pj_ccon_destructorP8PJconstsi.exit28

_ZL18pj_ccon_destructorP8PJconstsi.exit28:        ; preds = %28, %31
  %34 = tail call noundef ptr @_Z21pj_default_destructorP8PJconstsi(ptr noundef nonnull %0, i32 noundef 4096)
  br label %45

35:                                               ; preds = %23
  %36 = load double, ptr %2, align 8, !tbaa !44
  %37 = tail call double @sin(double noundef %36) #8, !tbaa !49
  %38 = getelementptr inbounds nuw i8, ptr %2, i64 16
  store double %37, ptr %38, align 8, !tbaa !50
  %39 = tail call double @cos(double noundef %36) #8, !tbaa !49
  %40 = getelementptr inbounds nuw i8, ptr %2, i64 24
  store double %39, ptr %40, align 8, !tbaa !51
  %41 = fdiv double %39, %37
  %42 = getelementptr inbounds nuw i8, ptr %2, i64 8
  store double %41, ptr %42, align 8, !tbaa !52
  %43 = getelementptr inbounds nuw i8, ptr %0, i64 112
  store ptr @_ZL12ccon_inverse5PJ_XYP8PJconsts, ptr %43, align 8, !tbaa !53
  %44 = getelementptr inbounds nuw i8, ptr %0, i64 104
  store ptr @_ZL12ccon_forward5PJ_LPP8PJconsts, ptr %44, align 8, !tbaa !54
  br label %45

45:                                               ; preds = %35, %_ZL18pj_ccon_destructorP8PJconstsi.exit28, %_ZL18pj_ccon_destructorP8PJconstsi.exit, %4
  %.0 = phi ptr [ %5, %4 ], [ %22, %_ZL18pj_ccon_destructorP8PJconstsi.exit ], [ %0, %35 ], [ %34, %_ZL18pj_ccon_destructorP8PJconstsi.exit28 ]
  ret ptr %.0
}